target datalayout = "e-m:e-p270:32:32-p271:32:32-p272:64:64-i64:64-i128:128-f80:128-n8:16:32:64-S128"
target triple = "x86_64-pc-linux-gnu"

%struct.t_psdata = type { ptr, %"class.std::vector", float, i32 }
%"class.std::vector" = type { %"struct.std::_Vector_base" }
%"struct.std::_Vector_base" = type { %"struct.std::_Vector_base<t_rgb, std::allocator<t_rgb>>::_Vector_impl" }
%"struct.std::_Vector_base<t_rgb, std::allocator<t_rgb>>::_Vector_impl" = type { %"struct.std::_Vector_base<t_rgb, std::allocator<t_rgb>>::_Vector_impl_data" }
%"struct.std::_Vector_base<t_rgb, std::allocator<t_rgb>>::_Vector_impl_data" = type { ptr, ptr, ptr }

@.str.41 = private unnamed_addr constant [22 x i8] c"%g %g %g %g %g arc s\0A\00", align 1

; Function Attrs: mustprogress nounwind uwtable
define void @_Z6ps_arcP8t_psdatafffff(ptr noundef %0, float noundef %1, float noundef %2, float noundef %3, float noundef %4, float noundef %5) #3 {
  %7 = alloca ptr, align 8
  %8 = alloca float, align 4
  %9 = alloca float, align 4
  %10 = alloca float, align 4
  %11 = alloca float, align 4
  %12 = alloca float, align 4
  store ptr %0, ptr %7, align 8, !tbaa !26
  store float %1, ptr %8, align 4, !tbaa !15
  store float %2, ptr %9, align 4, !tbaa !15
  store float %3, ptr %10, align 4, !tbaa !15
  store float %4, ptr %11, align 4, !tbaa !15
  store float %5, ptr %12, align 4, !tbaa !15
  %13 = load ptr, ptr %7, align 8, !tbaa !26
  %14 = getelementptr inbounds nuw %struct.t_psdata, ptr %13, i32 0, i32 0
  %15 = load ptr, ptr %14, align 8, !tbaa !17
  %16 = load float, ptr %8, align 4, !tbaa !15
  %17 = fpext float %16 to double
  %18 = load float, ptr %9, align 4, !tbaa !15
  %19 = fpext float %18 to double
  %20 = load float, ptr %10, align 4, !tbaa !15
  %21 = fpext float %20 to double
  %22 = load float, ptr %11, align 4, !tbaa !15
  %23 = fpext float %22 to double
  %24 = load float, ptr %12, align 4, !tbaa !15
  %25 = fpext float %24 to double
  %26 = call i32 (ptr, ptr, ...) @fprintf(ptr noundef %15, ptr noundef @.str.41, double noundef %17, double noundef %19, double noundef %21, double noundef %23, double noundef %25) #14
  ret void
}